target datalayout = "e-m:e-p270:32:32-p271:32:32-p272:64:64-i64:64-i128:128-f80:128-n8:16:32:64-S128"
target triple = "x86_64-pc-linux-gnu"

@stdin = external global ptr, align 8

; Function Attrs: nounwind uwtable
define internal void @zend_stream_stdio_closer(ptr noundef %0) #0 {
  %2 = alloca ptr, align 8
  store ptr %0, ptr %2, align 8, !tbaa !25
  %3 = load ptr, ptr %2, align 8, !tbaa !25
  %4 = icmp ne ptr %3, null
  br i1 %4, label %5, label %12

5:                                                ; preds = %1
  %6 = load ptr, ptr %2, align 8, !tbaa !25
  %7 = load ptr, ptr @stdin, align 8, !tbaa !9
  %8 = icmp ne ptr %6, %7
  br i1 %8, label %9, label %12

9:                                                ; preds = %5
  %10 = load ptr, ptr %2, align 8, !tbaa !25
  %11 = call i32 @fclose(ptr noundef %10)
  br label %12

12:                                               ; preds = %9, %5, %1
  ret void
}