; Function Attrs: nofree nounwind uwtable
define internal void @zend_stream_stdio_closer(ptr noundef captures(address) %0) #8 {
  %.not = icmp eq ptr %0, null
  %2 = load ptr, ptr @stdin, align 8
  %.not3 = icmp eq ptr %0, %2
  %or.cond = select i1 %.not, i1 true, i1 %.not3
  br i1 %or.cond, label %5, label %3

3:                                                ; preds = %1
  %4 = tail call i32 @fclose(ptr noundef nonnull %0)
  br label %5

5:                                                ; preds = %3, %1
  ret void
}